; Function Attrs: nounwind uwtable
define internal i32 @pop3_perform_auth(ptr noundef %0, ptr noundef %1, ptr noundef %2) #0 {
  %4 = getelementptr inbounds nuw i8, ptr %0, i64 24
  %5 = load ptr, ptr %4, align 8, !tbaa !83
  %6 = getelementptr inbounds nuw i8, ptr %5, i64 1088
  %7 = tail call ptr @Curl_bufref_ptr(ptr noundef %2) #6
  %.not = icmp eq ptr %7, null
  br i1 %.not, label %10, label %8

8:                                                ; preds = %3
  %9 = tail call i32 (ptr, ptr, ptr, ...) @Curl_pp_sendf(ptr noundef nonnull %0, ptr noundef nonnull %6, ptr noundef nonnull @.str.23, ptr noundef %1, ptr noundef nonnull %7) #6
  br label %12

10:                                               ; preds = %3
  %11 = tail call i32 (ptr, ptr, ptr, ...) @Curl_pp_sendf(ptr noundef nonnull %0, ptr noundef nonnull %6, ptr noundef nonnull @.str.24, ptr noundef %1) #6
  br label %12

12:                                               ; preds = %10, %8
  %.0 = phi i32 [ %9, %8 ], [ %11, %10 ]
  ret i32 %.0
}